; Function Attrs: mustprogress uwtable
define noundef i64 @_ZNK8QuantLib25CallSpecifiedMultiProduct37maxNumberOfCashFlowsPerProductPerStepEv(ptr nocapture noundef nonnull readonly align 8 dereferenceable(281) %this) unnamed_addr #0 align 2 {
entry:
  %underlying_ = getelementptr inbounds nuw i8, ptr %this, i64 8
  %0 = load ptr, ptr %underlying_, align 8, !tbaa !6
  %vtable = load ptr, ptr %0, align 8, !tbaa !3
  %vfn = getelementptr inbounds i8, ptr %vtable, i64 48
  %1 = load ptr, ptr %vfn, align 8
  %call2 = tail call noundef i64 %1(ptr noundef nonnull align 8 dereferenceable(8) %0)
  %rebate_ = getelementptr inbounds nuw i8, ptr %this, i64 24
  %2 = load ptr, ptr %rebate_, align 8, !tbaa !6
  %vtable5 = load ptr, ptr %2, align 8, !tbaa !3
  %vfn6 = getelementptr inbounds i8, ptr %vtable5, i64 48
  %3 = load ptr, ptr %vfn6, align 8
  %call7 = tail call noundef i64 %3(ptr noundef nonnull align 8 dereferenceable(8) %2)
  %.sroa.speculated = tail call i64 @llvm.umax.i64(i64 %call2, i64 %call7)
  ret i64 %.sroa.speculated
}